(dp0
S'general'
p1
(lp2
S'^Local\\\\__DDrawExclMode__$'
p3
aS'^Local\\\\__DDrawCheckExclMode__$'
p4
aS'^CicLoadWinStaWinSta0$'
p5
aS'IESQMMUTEX_0_208'
p6
aS'Global\\\\.net clr networking'
p7
aS'^Local\\\\MSCTF.CtfMonitorInstMutexDefault1$'
p8
aS'Local\\\\ZonesCacheCounterMutex'
p9
aS'Local\\\\ZonesCounterMutex'
p10
aS'Local\\\\ZoneAttributeCacheCounterMutex'
p11
aS'RasPbFile'
p12
aS'Local\\\\HKEY_LOCAL_MACHINE_SOFTWARE_Microsoft_Speech_PhoneConverters_Tokens_Universal_Mutex'
p13
aS'Local\\\\HKEY_LOCAL_MACHINE_SOFTWARE_Microsoft_Speech_Voices_Tokens_MS-Anna-1033-20-DSK_Lex_Mutex'
p14
aS'Local\\\\HKEY_LOCAL_MACHINE_SOFTWARE_Microsoft_Speech_Voices_Tokens_MS-Anna-1033-20-DSK_Mutex'
p15
aS'Local\\\\HKEY_LOCAL_MACHINE_SOFTWARE_Microsoft_Speech_PhoneConverters_Tokens_TraditionalChinese_Mutex'
p16
aS'Local\\\\HKEY_LOCAL_MACHINE_SOFTWARE_Microsoft_Speech_PhoneConverters_Tokens_German_Mutex'
p17
aS'Local\\\\HKEY_LOCAL_MACHINE_SOFTWARE_Microsoft_Speech_PhoneConverters_Tokens_Spanish_Mutex'
p18
aS'Local\\\\HKEY_LOCAL_MACHINE_SOFTWARE_Microsoft_Speech_PhoneConverters_Tokens_Chinese_Mutex'
p19
aS'Local\\\\HKEY_LOCAL_MACHINE_SOFTWARE_Microsoft_Speech_PhoneConverters_Tokens_English_Mutex'
p20
aS'Local\\\\HKEY_LOCAL_MACHINE_SOFTWARE_Microsoft_Speech_PhoneConverters_Tokens_French_Mutex'
p21
aS'Local\\\\HKEY_LOCAL_MACHINE_SOFTWARE_Microsoft_Speech_PhoneConverters_Tokens_Japanese_Mutex'
p22
aS'^gcc-shmem-tdm2-mxattr_recursive_shmem$'
p23
aS'^gcc-shmem-tdm2-_pthread_key_sch_shmem$'
p24
aS'^gcc-shmem-tdm2-sjlj_once$'
p25
aS'^gcc-shmem-tdm2-_pthread_key_dest_shmem$'
p26
aS'^gcc-shmem-tdm2-pthr_root_shmem$'
p27
aS'^gcc-shmem-tdm2-idListMax_shmem$'
p28
aS'^gcc-shmem-tdm2-cond_locked_shmem_rwlock$'
p29
aS'^gcc-shmem-tdm2-idListCnt_shmem$'
p30
aS'^gcc-shmem-tdm2-mtx_pthr_locked_shmem$'
p31
aS'^gcc-shmem-tdm2-idList_shmem$'
p32
aS'^gcc-shmem-tdm2-mutex_global_shmem$'
p33
aS'^gcc-shmem-tdm2-rwl_global_shmem$'
p34
aS'^gcc-shmem-tdm2-mutex_global_static_shmem$'
p35
aS'^gcc-shmem-tdm2-_pthread_key_max_shmem$'
p36
aS'^gcc-shmem-tdm2-pthr_last_shmem$'
p37
aS'^gcc-shmem-tdm2-idListNextId_shmem$'
p38
aS'^gcc-shmem-tdm2-once_obj_shmem$'
p39
aS'^gcc-shmem-tdm2-_pthread_cancelling_shmem$'
p40
aS'^gcc-shmem-tdm2-use_fc_key$'
p41
aS'^gcc-shmem-tdm2-_pthread_key_lock_shmem$'
p42
aS'^gcc-shmem-tdm2-_pthread_tls_shmem$'
p43
aS'^gcc-shmem-tdm2-_pthread_tls_once_shmem$'
p44
aS'^gcc-shmem-tdm2-fc_key$'
p45
aS'^gcc-shmem-tdm2-once_global_shmem$'
p46
asS'firefox.exe'
p47
(lp48
S'^Global\\\\MozillaUpdateMutex-aeVcDEW6vlSu\\+PLYtSFCvWhPsG0=$'
p49
aS'^Local\\\\FirefoxStartupMutex$'
p50
asS'explorer.exe'
p51
(lp52
S'^Global\\\\CDBurnExclusive$'
p53
aS'^CDBurnNotify$'
p54
aS'^Local\\\\Shell.CMruPidlList$'
p55
aS'Global\\\\[a-zA-Z]{1}::Users:[0-9a-zA-Z]+:AppData:Local:Microsoft:Windows:Explorer:thumbcache_idx.db!([0-9a-f]){7}'
p56
aS'Global\\\\[a-zA-Z]{1}::Users:[0-9a-zA-Z]+:AppData:Local:Microsoft:Windows:Explorer:thumbcache_([0-9a-f]){4}.db!dfMaintainerGlobal\\\\{([0-9A-F]){8}-([0-9A-F]){4}-([0-9A-F]){4}-([0-9A-F]){4}-([0-9A-F]){12}}'
p57
aS'^Global\\\\[a-zA-Z]{1}::Users:[0-9a-zA-Z]+:AppData:Local:Microsoft:Windows:Explorer:thumbcache_idx.db!ThumbnailCacheInit$'
p58
aS'^Global\\\\[a-zA-Z]{1}::Users:[0-9a-zA-Z]+:AppData:Local:Microsoft:Windows:Explorer:thumbcache_idx.db!rwReaderRefs$'
p59
aS'^Global\\\\[a-zA-Z]{1}::Users:[0-9a-zA-Z]+:AppData:Local:Microsoft:Windows:Explorer:thumbcache_idx.db!rwWriterMutex$'
p60
aS'^Global\\\\[a-zA-Z]{1}::Users:[0-9a-zA-Z]+:AppData:Local:Microsoft:Windows:Explorer:thumbcache_sr.db!dfMaintainer$'
p61
as.