(dp0
S'explorer.exe'
p1
(lp2
S'^Global\\\\CDBurnExclusive$'
p3
aS'^CDBurnNotify$'
p4
aS'^Local\\\\Shell.CMruPidlList$'
p5
aS'Global\\\\[a-zA-Z]{1}::Users:[0-9a-zA-Z]+:AppData:Local:Microsoft:Windows:Explorer:thumbcache_idx.db!([0-9a-f]){7}'
p6
aS'Global\\\\[a-zA-Z]{1}::Users:[0-9a-zA-Z]+:AppData:Local:Microsoft:Windows:Explorer:thumbcache_([0-9a-f]){4}.db!dfMaintainer'
p7
aS'Global\\\\{([0-9A-F]){8}-([0-9A-F]){4}-([0-9A-F]){4}-([0-9A-F]){4}-([0-9A-F]){12}}'
p8
aS'^Global\\\\[a-zA-Z]{1}::Users:[0-9a-zA-Z]+:AppData:Local:Microsoft:Windows:Explorer:thumbcache_idx.db!ThumbnailCacheInit$'
p9
aS'^Global\\\\[a-zA-Z]{1}::Users:[0-9a-zA-Z]+:AppData:Local:Microsoft:Windows:Explorer:thumbcache_idx.db!rwReaderRefs$'
p10
aS'^Global\\\\[a-zA-Z]{1}::Users:[0-9a-zA-Z]+:AppData:Local:Microsoft:Windows:Explorer:thumbcache_idx.db!rwWriterMutex$'
p11
aS'^Global\\\\[a-zA-Z]{1}::Users:[0-9a-zA-Z]+:AppData:Local:Microsoft:Windows:Explorer:thumbcache_sr.db!dfMaintainer$'
p12
asS'firefox.exe'
p13
(lp14
S'^Global\\\\MozillaUpdateMutex-aeVcDEW6vlSu\\+PLYtSFCvWhPsG0=$'
p15
aS'^Local\\\\FirefoxStartupMutex$'
p16
asS'general'
p17
(lp18
S'^Local\\\\__DDrawExclMode__$'
p19
aS'^Local\\\\__DDrawCheckExclMode__$'
p20
aS'^CicLoadWinStaWinSta0$'
p21
aS'IESQMMUTEX_0_208'
p22
aS'Global\\\\.net clr networking'
p23
aS'^Local\\\\MSCTF.CtfMonitorInstMutexDefault1$'
p24
aS'Local\\\\ZonesCacheCounterMutex'
p25
aS'Local\\\\ZonesCounterMutex'
p26
aS'Local\\\\ZoneAttributeCacheCounterMutex'
p27
aS'RasPbFile'
p28
aS'Local\\\\HKEY_LOCAL_MACHINE_SOFTWARE_Microsoft_Speech_PhoneConverters_Tokens_Universal_Mutex'
p29
aS'Local\\\\HKEY_LOCAL_MACHINE_SOFTWARE_Microsoft_Speech_Voices_Tokens_MS-Anna-1033-20-DSK_Lex_Mutex'
p30
aS'Local\\\\HKEY_LOCAL_MACHINE_SOFTWARE_Microsoft_Speech_Voices_Tokens_MS-Anna-1033-20-DSK_Mutex'
p31
aS'Local\\\\HKEY_LOCAL_MACHINE_SOFTWARE_Microsoft_Speech_PhoneConverters_Tokens_TraditionalChinese_Mutex'
p32
aS'Local\\\\HKEY_LOCAL_MACHINE_SOFTWARE_Microsoft_Speech_PhoneConverters_Tokens_German_Mutex'
p33
aS'Local\\\\HKEY_LOCAL_MACHINE_SOFTWARE_Microsoft_Speech_PhoneConverters_Tokens_Spanish_Mutex'
p34
aS'Local\\\\HKEY_LOCAL_MACHINE_SOFTWARE_Microsoft_Speech_PhoneConverters_Tokens_Chinese_Mutex'
p35
aS'Local\\\\HKEY_LOCAL_MACHINE_SOFTWARE_Microsoft_Speech_PhoneConverters_Tokens_English_Mutex'
p36
aS'Local\\\\HKEY_LOCAL_MACHINE_SOFTWARE_Microsoft_Speech_PhoneConverters_Tokens_French_Mutex'
p37
aS'Local\\\\HKEY_LOCAL_MACHINE_SOFTWARE_Microsoft_Speech_PhoneConverters_Tokens_Japanese_Mutex'
p38
aS'^gcc-shmem-tdm2-mxattr_recursive_shmem$'
p39
aS'^gcc-shmem-tdm2-_pthread_key_sch_shmem$'
p40
aS'^gcc-shmem-tdm2-sjlj_once$'
p41
aS'^gcc-shmem-tdm2-_pthread_key_dest_shmem$'
p42
aS'^gcc-shmem-tdm2-pthr_root_shmem$'
p43
aS'^gcc-shmem-tdm2-idListMax_shmem$'
p44
aS'^gcc-shmem-tdm2-cond_locked_shmem_rwlock$'
p45
aS'^gcc-shmem-tdm2-idListCnt_shmem$'
p46
aS'^gcc-shmem-tdm2-mtx_pthr_locked_shmem$'
p47
aS'^gcc-shmem-tdm2-idList_shmem$'
p48
aS'^gcc-shmem-tdm2-mutex_global_shmem$'
p49
aS'^gcc-shmem-tdm2-rwl_global_shmem$'
p50
aS'^gcc-shmem-tdm2-mutex_global_static_shmem$'
p51
aS'^gcc-shmem-tdm2-_pthread_key_max_shmem$'
p52
aS'^gcc-shmem-tdm2-pthr_last_shmem$'
p53
aS'^gcc-shmem-tdm2-idListNextId_shmem$'
p54
aS'^gcc-shmem-tdm2-once_obj_shmem$'
p55
aS'^gcc-shmem-tdm2-_pthread_cancelling_shmem$'
p56
aS'^gcc-shmem-tdm2-use_fc_key$'
p57
aS'^gcc-shmem-tdm2-_pthread_key_lock_shmem$'
p58
aS'^gcc-shmem-tdm2-_pthread_tls_shmem$'
p59
aS'^gcc-shmem-tdm2-_pthread_tls_once_shmem$'
p60
aS'^gcc-shmem-tdm2-fc_key$'
p61
aS'^gcc-shmem-tdm2-once_global_shmem$'
p62
as.